target datalayout = "e-m:e-p270:32:32-p271:32:32-p272:64:64-i64:64-i128:128-f80:128-n8:16:32:64-S128"
target triple = "x86_64-pc-linux-gnu"

%union.pthread_mutex_t = type { %struct.__pthread_mutex_s }
%struct.__pthread_mutex_s = type { i32, i32, i32, i32, i32, i16, i16, %struct.__pthread_internal_list }
%struct.__pthread_internal_list = type { ptr, ptr }
%struct.job_state_t = type { i64, i64, i32, i64 }

@.str.2 = private unnamed_addr constant [29 x i8] c"%s: pthread_mutex_lock(): %m\00", align 1
@.str.7 = private unnamed_addr constant [31 x i8] c"%s: pthread_mutex_unlock(): %m\00", align 1
@cred_job_list = internal global ptr null, align 8
@cred_cache_mutex = internal global %union.pthread_mutex_t zeroinitializer, align 8
@__func__.cred_begin_expiration = private unnamed_addr constant [22 x i8] c"cred_begin_expiration\00", align 1
@.str.10 = private unnamed_addr constant [46 x i8] c"set revoke expiration for jobid %u to %ld UTS\00", align 1
@.str.16 = private unnamed_addr constant [53 x i8] c"No cred_job_list, unable to clear expired job states\00", align 1

; Function Attrs: nounwind uwtable
define internal ptr @_find_job_state(i32 noundef %0) #0 {
  %2 = alloca i32, align 4
  store i32 %0, ptr %2, align 4
  %3 = load ptr, ptr @cred_job_list, align 8
  %4 = call ptr @list_find_first(ptr noundef %3, ptr noundef @_list_find_job_state, ptr noundef %2)
  ret ptr %4
}

; Function Attrs: nounwind uwtable
define internal void @_clear_expired_job_states() #0 {
  %1 = alloca i64, align 8
  %2 = alloca i32, align 4
  call void @llvm.lifetime.start.p0(i64 8, ptr %1) #7
  %3 = load ptr, ptr @cred_job_list, align 8
  %4 = icmp ne ptr %3, null
  br i1 %4, label %6, label %5

5:                                                ; preds = %0
  call void (ptr, ...) @warning(ptr noundef @.str.16)
  store i32 1, ptr %2, align 4
  br label %10

6:                                                ; preds = %0
  %7 = call i64 @time(ptr noundef null) #7
  store i64 %7, ptr %1, align 8
  %8 = load ptr, ptr @cred_job_list, align 8
  %9 = call i32 @list_delete_all(ptr noundef %8, ptr noundef @_list_find_expired_job_state, ptr noundef %1)
  store i32 0, ptr %2, align 4
  br label %10

10:                                               ; preds = %6, %5
  call void @llvm.lifetime.end.p0(i64 8, ptr %1) #7
  %11 = load i32, ptr %2, align 4
  switch i32 %11, label %13 [
    i32 0, label %12
    i32 1, label %12
  ]

12:                                               ; preds = %10, %10
  ret void

13:                                               ; preds = %10
  unreachable
}

; Function Attrs: nounwind uwtable
define dso_local i32 @cred_begin_expiration(i32 noundef %0) #0 {
  %2 = alloca i32, align 4
  %3 = alloca i32, align 4
  %4 = alloca ptr, align 8
  %5 = alloca i32, align 4
  %6 = alloca i32, align 4
  %7 = alloca i32, align 4
  %8 = alloca i32, align 4
  store i32 %0, ptr %3, align 4
  call void @llvm.lifetime.start.p0(i64 8, ptr %4) #7
  store ptr null, ptr %4, align 8
  br label %9

9:                                                ; preds = %1
  call void @llvm.lifetime.start.p0(i64 4, ptr %5) #7
  %10 = call i32 @pthread_mutex_lock(ptr noundef @cred_cache_mutex) #7
  store i32 %10, ptr %5, align 4
  %11 = load i32, ptr %5, align 4
  %12 = icmp ne i32 %11, 0
  br i1 %12, label %13, label %16

13:                                               ; preds = %9
  %14 = load i32, ptr %5, align 4
  %15 = call ptr @__errno_location() #8
  store i32 %14, ptr %15, align 4
  call void (ptr, ...) @fatal_abort(ptr noundef @.str.2, ptr noundef @__func__.cred_begin_expiration) #9
  unreachable

16:                                               ; preds = %9
  call void @llvm.lifetime.end.p0(i64 4, ptr %5) #7
  br label %17

17:                                               ; preds = %16
  br label %18

18:                                               ; preds = %17
  call void @_clear_expired_job_states()
  %19 = load i32, ptr %3, align 4
  %20 = call ptr @_find_job_state(i32 noundef %19)
  store ptr %20, ptr %4, align 8
  %21 = icmp ne ptr %20, null
  br i1 %21, label %24, label %22

22:                                               ; preds = %18
  %23 = call ptr @__errno_location() #8
  store i32 3, ptr %23, align 4
  br label %64

24:                                               ; preds = %18
  %25 = load ptr, ptr %4, align 8
  %26 = getelementptr inbounds nuw %struct.job_state_t, ptr %25, i32 0, i32 1
  %27 = load i64, ptr %26, align 8
  %28 = icmp slt i64 %27, 2147483647
  br i1 %28, label %29, label %31

29:                                               ; preds = %24
  %30 = call ptr @__errno_location() #8
  store i32 17, ptr %30, align 4
  br label %64

31:                                               ; preds = %24
  %32 = call i64 @time(ptr noundef null) #7
  %33 = call i32 @cred_expiration()
  %34 = sext i32 %33 to i64
  %35 = add nsw i64 %32, %34
  %36 = load ptr, ptr %4, align 8
  %37 = getelementptr inbounds nuw %struct.job_state_t, ptr %36, i32 0, i32 1
  store i64 %35, ptr %37, align 8
  br label %38

38:                                               ; preds = %31
  br label %39

39:                                               ; preds = %38
  %40 = call i32 @get_log_level()
  %41 = icmp sge i32 %40, 6
  br i1 %41, label %42, label %49

42:                                               ; preds = %39
  %43 = load ptr, ptr %4, align 8
  %44 = getelementptr inbounds nuw %struct.job_state_t, ptr %43, i32 0, i32 2
  %45 = load i32, ptr %44, align 8
  %46 = load ptr, ptr %4, align 8
  %47 = getelementptr inbounds nuw %struct.job_state_t, ptr %46, i32 0, i32 1
  %48 = load i64, ptr %47, align 8
  call void (i32, ptr, ...) @log_var(i32 noundef 6, ptr noundef @.str.10, i32 noundef %45, i64 noundef %48)
  br label %49

49:                                               ; preds = %42, %39
  br label %50

50:                                               ; preds = %49
  br label %51

51:                                               ; preds = %50
  br label %52

52:                                               ; preds = %51
  br label %53

53:                                               ; preds = %52
  br label %54

54:                                               ; preds = %53
  call void @llvm.lifetime.start.p0(i64 4, ptr %6) #7
  %55 = call i32 @pthread_mutex_unlock(ptr noundef @cred_cache_mutex) #7
  store i32 %55, ptr %6, align 4
  %56 = load i32, ptr %6, align 4
  %57 = icmp ne i32 %56, 0
  br i1 %57, label %58, label %61

58:                                               ; preds = %54
  %59 = load i32, ptr %6, align 4
  %60 = call ptr @__errno_location() #8
  store i32 %59, ptr %60, align 4
  call void (ptr, ...) @fatal_abort(ptr noundef @.str.7, ptr noundef @__func__.cred_begin_expiration) #9
  unreachable

61:                                               ; preds = %54
  call void @llvm.lifetime.end.p0(i64 4, ptr %6) #7
  br label %62

62:                                               ; preds = %61
  br label %63

63:                                               ; preds = %62
  store i32 0, ptr %2, align 4
  store i32 1, ptr %7, align 4
  br label %75

64:                                               ; preds = %29, %22
  br label %65

65:                                               ; preds = %64
  call void @llvm.lifetime.start.p0(i64 4, ptr %8) #7
  %66 = call i32 @pthread_mutex_unlock(ptr noundef @cred_cache_mutex) #7
  store i32 %66, ptr %8, align 4
  %67 = load i32, ptr %8, align 4
  %68 = icmp ne i32 %67, 0
  br i1 %68, label %69, label %72

69:                                               ; preds = %65
  %70 = load i32, ptr %8, align 4
  %71 = call ptr @__errno_location() #8
  store i32 %70, ptr %71, align 4
  call void (ptr, ...) @fatal_abort(ptr noundef @.str.7, ptr noundef @__func__.cred_begin_expiration) #9
  unreachable

72:                                               ; preds = %65
  call void @llvm.lifetime.end.p0(i64 4, ptr %8) #7
  br label %73

73:                                               ; preds = %72
  br label %74

74:                                               ; preds = %73
  store i32 -1, ptr %2, align 4
  store i32 1, ptr %7, align 4
  br label %75

75:                                               ; preds = %74, %63
  call void @llvm.lifetime.end.p0(i64 8, ptr %4) #7
  %76 = load i32, ptr %2, align 4
  ret i32 %76
}