; Function Attrs: nounwind uwtable
define dso_local range(i32 -1, 1) i32 @cred_begin_expiration(i32 noundef %0) local_unnamed_addr #0 {
  %2 = alloca i32, align 4
  %3 = alloca i64, align 8
  %4 = tail call i32 @pthread_mutex_lock(ptr noundef nonnull @cred_cache_mutex) #10
  %.not = icmp eq i32 %4, 0
  br i1 %.not, label %7, label %5

5:                                                ; preds = %1
  %6 = tail call ptr @__errno_location() #11
  store i32 %4, ptr %6, align 4
  tail call void (ptr, ...) @fatal_abort(ptr noundef nonnull @.str.2, ptr noundef nonnull @__func__.cred_begin_expiration) #12
  unreachable

7:                                                ; preds = %1
  call void @llvm.lifetime.start.p0(i64 8, ptr nonnull %3) #10
  %8 = load ptr, ptr @cred_job_list, align 8
  %.not.i = icmp eq ptr %8, null
  br i1 %.not.i, label %9, label %10

9:                                                ; preds = %7
  tail call void (ptr, ...) @warning(ptr noundef nonnull @.str.16) #10
  br label %_clear_expired_job_states.exit

10:                                               ; preds = %7
  %11 = tail call i64 @time(ptr noundef null) #10
  store i64 %11, ptr %3, align 8
  %12 = load ptr, ptr @cred_job_list, align 8
  %13 = call i32 @list_delete_all(ptr noundef %12, ptr noundef nonnull @_list_find_expired_job_state, ptr noundef nonnull %3) #10
  br label %_clear_expired_job_states.exit

_clear_expired_job_states.exit:                   ; preds = %9, %10
  call void @llvm.lifetime.end.p0(i64 8, ptr nonnull %3) #10
  call void @llvm.lifetime.start.p0(i64 4, ptr nonnull %2)
  store i32 %0, ptr %2, align 4
  %14 = load ptr, ptr @cred_job_list, align 8
  %15 = call ptr @list_find_first(ptr noundef %14, ptr noundef nonnull @_list_find_job_state, ptr noundef nonnull %2) #10
  call void @llvm.lifetime.end.p0(i64 4, ptr nonnull %2)
  %.not15 = icmp eq ptr %15, null
  br i1 %.not15, label %35, label %16

16:                                               ; preds = %_clear_expired_job_states.exit
  %17 = getelementptr inbounds nuw i8, ptr %15, i64 8
  %18 = load i64, ptr %17, align 8
  %19 = icmp slt i64 %18, 2147483647
  br i1 %19, label %35, label %20

20:                                               ; preds = %16
  %21 = call i64 @time(ptr noundef null) #10
  %22 = call i32 @cred_expiration() #10
  %23 = sext i32 %22 to i64
  %24 = add nsw i64 %21, %23
  store i64 %24, ptr %17, align 8
  %25 = call i32 @get_log_level() #10
  %26 = icmp sgt i32 %25, 5
  br i1 %26, label %27, label %31

27:                                               ; preds = %20
  %28 = getelementptr inbounds nuw i8, ptr %15, i64 16
  %29 = load i32, ptr %28, align 8
  %30 = load i64, ptr %17, align 8
  call void (i32, ptr, ...) @log_var(i32 noundef 6, ptr noundef nonnull @.str.10, i32 noundef %29, i64 noundef %30) #10
  br label %31

31:                                               ; preds = %20, %27
  %32 = call i32 @pthread_mutex_unlock(ptr noundef nonnull @cred_cache_mutex) #10
  %.not16 = icmp eq i32 %32, 0
  br i1 %.not16, label %40, label %33

33:                                               ; preds = %31
  %34 = tail call ptr @__errno_location() #11
  store i32 %32, ptr %34, align 4
  call void (ptr, ...) @fatal_abort(ptr noundef nonnull @.str.7, ptr noundef nonnull @__func__.cred_begin_expiration) #12
  unreachable

35:                                               ; preds = %16, %_clear_expired_job_states.exit
  %.sink = phi i32 [ 3, %_clear_expired_job_states.exit ], [ 17, %16 ]
  %36 = tail call ptr @__errno_location() #11
  store i32 %.sink, ptr %36, align 4
  %37 = call i32 @pthread_mutex_unlock(ptr noundef nonnull @cred_cache_mutex) #10
  %.not17 = icmp eq i32 %37, 0
  br i1 %.not17, label %40, label %38

38:                                               ; preds = %35
  %39 = tail call ptr @__errno_location() #11
  store i32 %37, ptr %39, align 4
  call void (ptr, ...) @fatal_abort(ptr noundef nonnull @.str.7, ptr noundef nonnull @__func__.cred_begin_expiration) #12
  unreachable

40:                                               ; preds = %35, %31
  %.0 = phi i32 [ 0, %31 ], [ -1, %35 ]
  ret i32 %.0
}